target datalayout = "e-m:e-p270:32:32-p271:32:32-p272:64:64-i64:64-i128:128-f80:128-n8:16:32:64-S128"
target triple = "x86_64-pc-linux-gnu"

%struct.blf_log_container = type { i64, i64, i64, i64, i64, i16, ptr }
%struct.blf_data = type { i64, i64, i64, ptr, ptr, ptr, i32 }
%struct.blf_params = type { ptr, ptr, ptr, i8, i8, ptr }
%struct._GArray = type { ptr, i32 }

@.str.12 = private unnamed_addr constant [45 x i8] c"blf_read_bytes_or_eof: ran out of containers\00", align 1

; Function Attrs: alwaysinline nounwind
define internal ptr @memcpy.inline(ptr noalias %0, ptr noalias %1, i64 %2) #4 {
  %4 = alloca ptr, align 8
  %5 = alloca ptr, align 8
  %6 = alloca i64, align 8
  store ptr %0, ptr %4, align 8
  store ptr %1, ptr %5, align 8
  store i64 %2, ptr %6, align 8
  %7 = load ptr, ptr %4, align 8
  %8 = load ptr, ptr %5, align 8
  %9 = load i64, ptr %6, align 8
  %10 = load ptr, ptr %4, align 8
  %11 = call i64 @llvm.objectsize.i64.p0(ptr %10, i1 false, i1 true, i1 true)
  %12 = call ptr @__memcpy_chk(ptr noundef %7, ptr noundef %8, i64 noundef %9, i64 noundef %11) #13
  ret ptr %12
}

; Function Attrs: null_pointer_is_valid sspstrong uwtable
define internal zeroext i1 @blf_read_bytes_or_eof(ptr noundef %0, i64 noundef %1, ptr noundef %2, i64 noundef %3, ptr noundef %4, ptr noundef %5) #2 {
  %7 = alloca i1, align 1
  %8 = alloca ptr, align 8
  %9 = alloca i64, align 8
  %10 = alloca ptr, align 8
  %11 = alloca i64, align 8
  %12 = alloca ptr, align 8
  %13 = alloca ptr, align 8
  %14 = alloca ptr, align 8
  %15 = alloca i32, align 4
  %16 = alloca i64, align 8
  %17 = alloca i64, align 8
  %18 = alloca i64, align 8
  %19 = alloca i64, align 8
  %20 = alloca ptr, align 8
  %21 = alloca i32, align 4
  store ptr %0, ptr %8, align 8
  store i64 %1, ptr %9, align 8
  store ptr %2, ptr %10, align 8
  store i64 %3, ptr %11, align 8
  store ptr %4, ptr %12, align 8
  store ptr %5, ptr %13, align 8
  call void @llvm.lifetime.start.p0(i64 8, ptr %14) #13
  call void @llvm.lifetime.start.p0(i64 4, ptr %15) #13
  call void @llvm.lifetime.start.p0(i64 8, ptr %16) #13
  %22 = load i64, ptr %9, align 8
  %23 = load i64, ptr %11, align 8
  %24 = add i64 %22, %23
  store i64 %24, ptr %16, align 8
  call void @llvm.lifetime.start.p0(i64 8, ptr %17) #13
  store i64 0, ptr %17, align 8
  call void @llvm.lifetime.start.p0(i64 8, ptr %18) #13
  call void @llvm.lifetime.start.p0(i64 8, ptr %19) #13
  call void @llvm.lifetime.start.p0(i64 8, ptr %20) #13
  %25 = load ptr, ptr %10, align 8
  store ptr %25, ptr %20, align 8
  %26 = load i64, ptr %11, align 8
  %27 = icmp eq i64 %26, 0
  br i1 %27, label %28, label %32

28:                                               ; preds = %6
  br label %29

29:                                               ; preds = %28
  br label %30

30:                                               ; preds = %29
  br label %31

31:                                               ; preds = %30
  store i1 false, ptr %7, align 1
  store i32 1, ptr %21, align 4
  br label %265

32:                                               ; preds = %6
  %33 = load i64, ptr %11, align 8
  %34 = icmp ugt i64 %33, 4294967295
  br i1 %34, label %35, label %39

35:                                               ; preds = %32
  br label %36

36:                                               ; preds = %35
  br label %37

37:                                               ; preds = %36
  br label %38

38:                                               ; preds = %37
  store i1 false, ptr %7, align 1
  store i32 1, ptr %21, align 4
  br label %265

39:                                               ; preds = %32
  %40 = load ptr, ptr %8, align 8
  %41 = getelementptr inbounds nuw %struct.blf_params, ptr %40, i32 0, i32 3
  %42 = load i8, ptr %41, align 8, !range !8, !noundef !9
  %43 = trunc i8 %42 to i1
  br i1 %43, label %44, label %67

44:                                               ; preds = %39
  %45 = load ptr, ptr %8, align 8
  %46 = getelementptr inbounds nuw %struct.blf_params, ptr %45, i32 0, i32 5
  %47 = load ptr, ptr %46, align 8
  %48 = getelementptr inbounds nuw %struct.blf_data, ptr %47, i32 0, i32 3
  %49 = load ptr, ptr %48, align 8
  %50 = call i32 @g_array_binary_search(ptr noundef %49, ptr noundef %9, ptr noundef @blf_logcontainers_search, ptr noundef %15)
  %51 = icmp ne i32 %50, 0
  br i1 %51, label %56, label %52

52:                                               ; preds = %44
  br label %53

53:                                               ; preds = %52
  br label %54

54:                                               ; preds = %53
  br label %55

55:                                               ; preds = %54
  store i1 false, ptr %7, align 1
  store i32 1, ptr %21, align 4
  br label %265

56:                                               ; preds = %44
  %57 = load ptr, ptr %8, align 8
  %58 = getelementptr inbounds nuw %struct.blf_params, ptr %57, i32 0, i32 5
  %59 = load ptr, ptr %58, align 8
  %60 = getelementptr inbounds nuw %struct.blf_data, ptr %59, i32 0, i32 3
  %61 = load ptr, ptr %60, align 8
  %62 = getelementptr inbounds nuw %struct._GArray, ptr %61, i32 0, i32 0
  %63 = load ptr, ptr %62, align 8
  %64 = load i32, ptr %15, align 4
  %65 = zext i32 %64 to i64
  %66 = getelementptr %struct.blf_log_container, ptr %63, i64 %65
  store ptr %66, ptr %14, align 8
  br label %115

67:                                               ; preds = %39
  %68 = load ptr, ptr %8, align 8
  %69 = getelementptr inbounds nuw %struct.blf_params, ptr %68, i32 0, i32 5
  %70 = load ptr, ptr %69, align 8
  %71 = getelementptr inbounds nuw %struct.blf_data, ptr %70, i32 0, i32 3
  %72 = load ptr, ptr %71, align 8
  %73 = getelementptr inbounds nuw %struct._GArray, ptr %72, i32 0, i32 1
  %74 = load i32, ptr %73, align 8
  %75 = icmp eq i32 %74, 0
  br i1 %75, label %76, label %83

76:                                               ; preds = %67
  %77 = load ptr, ptr %8, align 8
  %78 = load ptr, ptr %12, align 8
  %79 = load ptr, ptr %13, align 8
  %80 = call zeroext i1 @blf_pull_next_logcontainer(ptr noundef %77, ptr noundef %78, ptr noundef %79)
  br i1 %80, label %82, label %81

81:                                               ; preds = %76
  store i1 false, ptr %7, align 1
  store i32 1, ptr %21, align 4
  br label %265

82:                                               ; preds = %76
  br label %83

83:                                               ; preds = %82, %67
  %84 = load ptr, ptr %8, align 8
  %85 = getelementptr inbounds nuw %struct.blf_params, ptr %84, i32 0, i32 5
  %86 = load ptr, ptr %85, align 8
  %87 = getelementptr inbounds nuw %struct.blf_data, ptr %86, i32 0, i32 3
  %88 = load ptr, ptr %87, align 8
  %89 = getelementptr inbounds nuw %struct._GArray, ptr %88, i32 0, i32 1
  %90 = load i32, ptr %89, align 8
  store i32 %90, ptr %15, align 4
  br label %91

91:                                               ; preds = %112, %83
  %92 = load ptr, ptr %8, align 8
  %93 = getelementptr inbounds nuw %struct.blf_params, ptr %92, i32 0, i32 5
  %94 = load ptr, ptr %93, align 8
  %95 = getelementptr inbounds nuw %struct.blf_data, ptr %94, i32 0, i32 3
  %96 = load ptr, ptr %95, align 8
  %97 = getelementptr inbounds nuw %struct._GArray, ptr %96, i32 0, i32 0
  %98 = load ptr, ptr %97, align 8
  %99 = load i32, ptr %15, align 4
  %100 = add i32 %99, -1
  store i32 %100, ptr %15, align 4
  %101 = zext i32 %100 to i64
  %102 = getelementptr %struct.blf_log_container, ptr %98, i64 %101
  store ptr %102, ptr %14, align 8
  br label %103

103:                                              ; preds = %91
  %104 = load i64, ptr %9, align 8
  %105 = load ptr, ptr %14, align 8
  %106 = getelementptr inbounds nuw %struct.blf_log_container, ptr %105, i32 0, i32 3
  %107 = load i64, ptr %106, align 8
  %108 = icmp ult i64 %104, %107
  br i1 %108, label %109, label %112

109:                                              ; preds = %103
  %110 = load i32, ptr %15, align 4
  %111 = icmp ugt i32 %110, 0
  br label %112

112:                                              ; preds = %109, %103
  %113 = phi i1 [ false, %103 ], [ %111, %109 ]
  br i1 %113, label %91, label %114, !llvm.loop !10

114:                                              ; preds = %112
  br label %115

115:                                              ; preds = %114, %56
  br label %116

116:                                              ; preds = %260, %115
  %117 = load i64, ptr %9, align 8
  %118 = load i64, ptr %16, align 8
  %119 = icmp ult i64 %117, %118
  br i1 %119, label %120, label %261

120:                                              ; preds = %116
  br label %121

121:                                              ; preds = %179, %120
  %122 = load i64, ptr %9, align 8
  %123 = load ptr, ptr %14, align 8
  %124 = getelementptr inbounds nuw %struct.blf_log_container, ptr %123, i32 0, i32 3
  %125 = load i64, ptr %124, align 8
  %126 = load ptr, ptr %14, align 8
  %127 = getelementptr inbounds nuw %struct.blf_log_container, ptr %126, i32 0, i32 4
  %128 = load i64, ptr %127, align 8
  %129 = add i64 %125, %128
  %130 = icmp uge i64 %122, %129
  br i1 %130, label %131, label %180

131:                                              ; preds = %121
  %132 = load i32, ptr %15, align 4
  %133 = add i32 %132, 1
  store i32 %133, ptr %15, align 4
  %134 = load ptr, ptr %8, align 8
  %135 = getelementptr inbounds nuw %struct.blf_params, ptr %134, i32 0, i32 3
  %136 = load i8, ptr %135, align 8, !range !8, !noundef !9
  %137 = trunc i8 %136 to i1
  br i1 %137, label %145, label %138

138:                                              ; preds = %131
  %139 = load ptr, ptr %8, align 8
  %140 = load ptr, ptr %12, align 8
  %141 = load ptr, ptr %13, align 8
  %142 = call zeroext i1 @blf_pull_next_logcontainer(ptr noundef %139, ptr noundef %140, ptr noundef %141)
  br i1 %142, label %144, label %143

143:                                              ; preds = %138
  store i1 false, ptr %7, align 1
  store i32 1, ptr %21, align 4
  br label %265

144:                                              ; preds = %138
  br label %145

145:                                              ; preds = %144, %131
  %146 = load i32, ptr %15, align 4
  %147 = load ptr, ptr %8, align 8
  %148 = getelementptr inbounds nuw %struct.blf_params, ptr %147, i32 0, i32 5
  %149 = load ptr, ptr %148, align 8
  %150 = getelementptr inbounds nuw %struct.blf_data, ptr %149, i32 0, i32 3
  %151 = load ptr, ptr %150, align 8
  %152 = getelementptr inbounds nuw %struct._GArray, ptr %151, i32 0, i32 1
  %153 = load i32, ptr %152, align 8
  %154 = icmp uge i32 %146, %153
  br i1 %154, label %155, label %159

155:                                              ; preds = %145
  br label %156

156:                                              ; preds = %155
  br label %157

157:                                              ; preds = %156
  br label %158

158:                                              ; preds = %157
  store i1 false, ptr %7, align 1
  store i32 1, ptr %21, align 4
  br label %265

159:                                              ; preds = %145
  %160 = load ptr, ptr %8, align 8
  %161 = getelementptr inbounds nuw %struct.blf_params, ptr %160, i32 0, i32 5
  %162 = load ptr, ptr %161, align 8
  %163 = getelementptr inbounds nuw %struct.blf_data, ptr %162, i32 0, i32 3
  %164 = load ptr, ptr %163, align 8
  %165 = getelementptr inbounds nuw %struct._GArray, ptr %164, i32 0, i32 0
  %166 = load ptr, ptr %165, align 8
  %167 = load i32, ptr %15, align 4
  %168 = zext i32 %167 to i64
  %169 = getelementptr %struct.blf_log_container, ptr %166, i64 %168
  store ptr %169, ptr %14, align 8
  %170 = load i64, ptr %9, align 8
  %171 = load ptr, ptr %14, align 8
  %172 = getelementptr inbounds nuw %struct.blf_log_container, ptr %171, i32 0, i32 3
  %173 = load i64, ptr %172, align 8
  %174 = icmp ult i64 %170, %173
  br i1 %174, label %175, label %179

175:                                              ; preds = %159
  br label %176

176:                                              ; preds = %175
  br label %177

177:                                              ; preds = %176
  br label %178

178:                                              ; preds = %177
  store i1 false, ptr %7, align 1
  store i32 1, ptr %21, align 4
  br label %265

179:                                              ; preds = %159
  br label %121, !llvm.loop !11

180:                                              ; preds = %121
  %181 = load i64, ptr %9, align 8
  %182 = load ptr, ptr %14, align 8
  %183 = getelementptr inbounds nuw %struct.blf_log_container, ptr %182, i32 0, i32 3
  %184 = load i64, ptr %183, align 8
  %185 = icmp ult i64 %181, %184
  br i1 %185, label %186, label %190

186:                                              ; preds = %180
  br label %187

187:                                              ; preds = %186
  br label %188

188:                                              ; preds = %187
  br label %189

189:                                              ; preds = %188
  store i1 false, ptr %7, align 1
  store i32 1, ptr %21, align 4
  br label %265

190:                                              ; preds = %180
  %191 = load i64, ptr %9, align 8
  %192 = load ptr, ptr %14, align 8
  %193 = getelementptr inbounds nuw %struct.blf_log_container, ptr %192, i32 0, i32 3
  %194 = load i64, ptr %193, align 8
  %195 = sub i64 %191, %194
  store i64 %195, ptr %19, align 8
  %196 = load ptr, ptr %8, align 8
  %197 = getelementptr inbounds nuw %struct.blf_params, ptr %196, i32 0, i32 3
  %198 = load i8, ptr %197, align 8, !range !8, !noundef !9
  %199 = trunc i8 %198 to i1
  br i1 %199, label %200, label %219

200:                                              ; preds = %190
  %201 = load ptr, ptr %8, align 8
  %202 = getelementptr inbounds nuw %struct.blf_params, ptr %201, i32 0, i32 2
  %203 = load ptr, ptr %202, align 8
  %204 = load ptr, ptr %14, align 8
  %205 = getelementptr inbounds nuw %struct.blf_log_container, ptr %204, i32 0, i32 2
  %206 = load i64, ptr %205, align 8
  %207 = load ptr, ptr %12, align 8
  %208 = call i64 @file_seek(ptr noundef %203, i64 noundef %206, i32 noundef 0, ptr noundef %207)
  %209 = icmp eq i64 %208, -1
  br i1 %209, label %210, label %211

210:                                              ; preds = %200
  store i1 false, ptr %7, align 1
  store i32 1, ptr %21, align 4
  br label %265

211:                                              ; preds = %200
  %212 = load ptr, ptr %8, align 8
  %213 = load ptr, ptr %14, align 8
  %214 = load ptr, ptr %12, align 8
  %215 = load ptr, ptr %13, align 8
  %216 = call zeroext i1 @blf_pull_logcontainer_into_memory(ptr noundef %212, ptr noundef %213, ptr noundef %214, ptr noundef %215)
  br i1 %216, label %218, label %217

217:                                              ; preds = %211
  store i1 false, ptr %7, align 1
  store i32 1, ptr %21, align 4
  br label %265

218:                                              ; preds = %211
  br label %219

219:                                              ; preds = %218, %190
  %220 = load ptr, ptr %14, align 8
  %221 = getelementptr inbounds nuw %struct.blf_log_container, ptr %220, i32 0, i32 4
  %222 = load i64, ptr %221, align 8
  %223 = load i64, ptr %19, align 8
  %224 = sub i64 %222, %223
  store i64 %224, ptr %18, align 8
  %225 = load i64, ptr %18, align 8
  %226 = load i64, ptr %11, align 8
  %227 = load i64, ptr %17, align 8
  %228 = sub i64 %226, %227
  %229 = icmp ult i64 %225, %228
  br i1 %229, label %230, label %247

230:                                              ; preds = %219
  %231 = load ptr, ptr %20, align 8
  %232 = load i64, ptr %17, align 8
  %233 = getelementptr i8, ptr %231, i64 %232
  %234 = load ptr, ptr %14, align 8
  %235 = getelementptr inbounds nuw %struct.blf_log_container, ptr %234, i32 0, i32 6
  %236 = load ptr, ptr %235, align 8
  %237 = load i64, ptr %19, align 8
  %238 = getelementptr i8, ptr %236, i64 %237
  %239 = load i64, ptr %18, align 8
  %240 = call ptr @memcpy.inline(ptr noundef %233, ptr noundef %238, i64 noundef %239) #13
  %241 = load i64, ptr %18, align 8
  %242 = load i64, ptr %17, align 8
  %243 = add i64 %242, %241
  store i64 %243, ptr %17, align 8
  %244 = load i64, ptr %18, align 8
  %245 = load i64, ptr %9, align 8
  %246 = add i64 %245, %244
  store i64 %246, ptr %9, align 8
  br label %260

247:                                              ; preds = %219
  %248 = load ptr, ptr %20, align 8
  %249 = load i64, ptr %17, align 8
  %250 = getelementptr i8, ptr %248, i64 %249
  %251 = load ptr, ptr %14, align 8
  %252 = getelementptr inbounds nuw %struct.blf_log_container, ptr %251, i32 0, i32 6
  %253 = load ptr, ptr %252, align 8
  %254 = load i64, ptr %19, align 8
  %255 = getelementptr i8, ptr %253, i64 %254
  %256 = load i64, ptr %11, align 8
  %257 = load i64, ptr %17, align 8
  %258 = sub i64 %256, %257
  %259 = call ptr @memcpy.inline(ptr noundef %250, ptr noundef %255, i64 noundef %258) #13
  store i1 true, ptr %7, align 1
  store i32 1, ptr %21, align 4
  br label %265

260:                                              ; preds = %230
  br label %116, !llvm.loop !12

261:                                              ; preds = %116
  %262 = load ptr, ptr %12, align 8
  store i32 -21, ptr %262, align 4
  %263 = call noalias ptr @wmem_strdup(ptr noundef null, ptr noundef @.str.12)
  %264 = load ptr, ptr %13, align 8
  store ptr %263, ptr %264, align 8
  store i1 false, ptr %7, align 1
  store i32 1, ptr %21, align 4
  br label %265

265:                                              ; preds = %261, %247, %217, %210, %189, %178, %158, %143, %81, %55, %38, %31
  call void @llvm.lifetime.end.p0(i64 8, ptr %20) #13
  call void @llvm.lifetime.end.p0(i64 8, ptr %19) #13
  call void @llvm.lifetime.end.p0(i64 8, ptr %18) #13
  call void @llvm.lifetime.end.p0(i64 8, ptr %17) #13
  call void @llvm.lifetime.end.p0(i64 8, ptr %16) #13
  call void @llvm.lifetime.end.p0(i64 4, ptr %15) #13
  call void @llvm.lifetime.end.p0(i64 8, ptr %14) #13
  %266 = load i1, ptr %7, align 1
  ret i1 %266
}