; Function Attrs: null_pointer_is_valid sspstrong uwtable
define internal fastcc noundef zeroext i1 @blf_read_bytes_or_eof(ptr noundef readonly captures(none) %0, i64 noundef %1, ptr noundef %2, i64 noundef range(i64 0, 4294967296) %3, ptr noundef %4, ptr noundef %5) unnamed_addr #2 {
  %7 = alloca i64, align 8
  %8 = alloca i32, align 4
  store i64 %1, ptr %7, align 8
  call void @llvm.lifetime.start.p0(i64 4, ptr nonnull %8) #14
  %9 = add i64 %3, %1
  %10 = icmp eq i64 %3, 0
  br i1 %10, label %.loopexit, label %11

11:                                               ; preds = %6
  %12 = getelementptr inbounds nuw i8, ptr %0, i64 24
  %13 = load i8, ptr %12, align 8, !range !20, !noundef !21
  %14 = trunc nuw i8 %13 to i1
  %15 = getelementptr inbounds nuw i8, ptr %0, i64 32
  %16 = load ptr, ptr %15, align 8
  %17 = getelementptr inbounds nuw i8, ptr %16, i64 24
  %18 = load ptr, ptr %17, align 8
  br i1 %14, label %19, label %29

19:                                               ; preds = %11
  %20 = call i32 @g_array_binary_search(ptr noundef %18, ptr noundef nonnull %7, ptr noundef nonnull @blf_logcontainers_search, ptr noundef nonnull %8)
  %.not = icmp eq i32 %20, 0
  br i1 %.not, label %.loopexit, label %21

21:                                               ; preds = %19
  %22 = load ptr, ptr %15, align 8
  %23 = getelementptr inbounds nuw i8, ptr %22, i64 24
  %24 = load ptr, ptr %23, align 8
  %25 = load ptr, ptr %24, align 8
  %26 = load i32, ptr %8, align 4
  %27 = zext i32 %26 to i64
  %28 = getelementptr %struct.blf_log_container, ptr %25, i64 %27
  %.pre105 = load i64, ptr %7, align 8
  br label %48

29:                                               ; preds = %11
  %30 = getelementptr inbounds nuw i8, ptr %18, i64 8
  %31 = load i32, ptr %30, align 8
  %32 = icmp eq i32 %31, 0
  br i1 %32, label %33, label %35

33:                                               ; preds = %29
  %34 = tail call fastcc zeroext i1 @blf_pull_next_logcontainer(ptr noundef %0, ptr noundef %4, ptr noundef %5)
  br i1 %34, label %._crit_edge100, label %.loopexit

._crit_edge100:                                   ; preds = %33
  %.pre = load ptr, ptr %15, align 8
  %.phi.trans.insert = getelementptr inbounds nuw i8, ptr %.pre, i64 24
  %.pre101 = load ptr, ptr %.phi.trans.insert, align 8
  %.phi.trans.insert102 = getelementptr inbounds nuw i8, ptr %.pre101, i64 8
  %.pre103 = load i32, ptr %.phi.trans.insert102, align 8
  br label %35

35:                                               ; preds = %._crit_edge100, %29
  %36 = phi i32 [ %.pre103, %._crit_edge100 ], [ %31, %29 ]
  %37 = phi ptr [ %.pre101, %._crit_edge100 ], [ %18, %29 ]
  %.pre104 = load ptr, ptr %37, align 8
  br label %38

38:                                               ; preds = %38, %35
  %39 = phi i32 [ %40, %38 ], [ %36, %35 ]
  %40 = add i32 %39, -1
  %41 = zext i32 %40 to i64
  %42 = getelementptr %struct.blf_log_container, ptr %.pre104, i64 %41
  %43 = getelementptr inbounds nuw i8, ptr %42, i64 24
  %44 = load i64, ptr %43, align 8
  %45 = icmp ult i64 %1, %44
  %46 = icmp ne i32 %40, 0
  %47 = and i1 %46, %45
  br i1 %47, label %38, label %.loopexit66, !llvm.loop !23

.loopexit66:                                      ; preds = %38
  store i32 %40, ptr %8, align 4
  br label %48

48:                                               ; preds = %.loopexit66, %21
  %49 = phi i64 [ %.pre105, %21 ], [ %1, %.loopexit66 ]
  %.055 = phi ptr [ %28, %21 ], [ %42, %.loopexit66 ]
  %50 = icmp ult i64 %49, %9
  br i1 %50, label %.preheader.lr.ph, label %._crit_edge

.preheader.lr.ph:                                 ; preds = %48
  %51 = getelementptr inbounds nuw i8, ptr %0, i64 32
  %52 = getelementptr inbounds nuw i8, ptr %0, i64 16
  br label %.preheader

.preheader:                                       ; preds = %.preheader.lr.ph, %106
  %53 = phi i64 [ %49, %.preheader.lr.ph ], [ %109, %106 ]
  %.183 = phi ptr [ %.055, %.preheader.lr.ph ], [ %.2, %106 ]
  %.05682 = phi i64 [ 0, %.preheader.lr.ph ], [ %107, %106 ]
  %.phi.trans.insert106 = getelementptr inbounds nuw i8, ptr %.183, i64 24
  %.pre107 = load i64, ptr %.phi.trans.insert106, align 8
  br label %54

54:                                               ; preds = %.preheader, %74
  %55 = phi i64 [ %80, %74 ], [ %.pre107, %.preheader ]
  %56 = phi i64 [ %78, %74 ], [ %53, %.preheader ]
  %.2 = phi ptr [ %77, %74 ], [ %.183, %.preheader ]
  %57 = getelementptr inbounds nuw i8, ptr %.2, i64 32
  %58 = load i64, ptr %57, align 8
  %59 = add i64 %58, %55
  %.not63 = icmp ult i64 %56, %59
  br i1 %.not63, label %82, label %60

60:                                               ; preds = %54
  %61 = load i32, ptr %8, align 4
  %62 = add i32 %61, 1
  store i32 %62, ptr %8, align 4
  %63 = load i8, ptr %12, align 8, !range !20, !noundef !21
  %64 = trunc nuw i8 %63 to i1
  br i1 %64, label %67, label %65

65:                                               ; preds = %60
  %66 = call fastcc zeroext i1 @blf_pull_next_logcontainer(ptr noundef %0, ptr noundef %4, ptr noundef %5)
  br i1 %66, label %._crit_edge108, label %.loopexit

._crit_edge108:                                   ; preds = %65
  %.pre109 = load i32, ptr %8, align 4
  br label %67

67:                                               ; preds = %._crit_edge108, %60
  %68 = phi i32 [ %.pre109, %._crit_edge108 ], [ %62, %60 ]
  %69 = load ptr, ptr %51, align 8
  %70 = getelementptr inbounds nuw i8, ptr %69, i64 24
  %71 = load ptr, ptr %70, align 8
  %72 = getelementptr inbounds nuw i8, ptr %71, i64 8
  %73 = load i32, ptr %72, align 8
  %.not64 = icmp ult i32 %68, %73
  br i1 %.not64, label %74, label %.loopexit

74:                                               ; preds = %67
  %75 = load ptr, ptr %71, align 8
  %76 = zext i32 %68 to i64
  %77 = getelementptr %struct.blf_log_container, ptr %75, i64 %76
  %78 = load i64, ptr %7, align 8
  %79 = getelementptr inbounds nuw i8, ptr %77, i64 24
  %80 = load i64, ptr %79, align 8
  %81 = icmp ult i64 %78, %80
  br i1 %81, label %.loopexit, label %54, !llvm.loop !24

82:                                               ; preds = %54
  %83 = getelementptr inbounds nuw i8, ptr %.2, i64 32
  %84 = icmp ult i64 %56, %55
  br i1 %84, label %.loopexit, label %85

85:                                               ; preds = %82
  %86 = sub nuw i64 %56, %55
  %87 = load i8, ptr %12, align 8, !range !20, !noundef !21
  %88 = trunc nuw i8 %87 to i1
  br i1 %88, label %89, label %97

89:                                               ; preds = %85
  %90 = load ptr, ptr %52, align 8
  %91 = getelementptr inbounds nuw i8, ptr %.2, i64 16
  %92 = load i64, ptr %91, align 8
  %93 = call i64 @file_seek(ptr noundef %90, i64 noundef %92, i32 noundef 0, ptr noundef %4)
  %94 = icmp eq i64 %93, -1
  br i1 %94, label %.loopexit, label %95

95:                                               ; preds = %89
  %96 = call fastcc zeroext i1 @blf_pull_logcontainer_into_memory(ptr noundef %0, ptr noundef %.2, ptr noundef %4, ptr noundef %5)
  br i1 %96, label %._crit_edge110, label %.loopexit

._crit_edge110:                                   ; preds = %95
  %.pre111 = load i64, ptr %83, align 8
  br label %97

97:                                               ; preds = %._crit_edge110, %85
  %98 = phi i64 [ %.pre111, %._crit_edge110 ], [ %58, %85 ]
  %99 = sub i64 %98, %86
  %100 = sub i64 %3, %.05682
  %101 = icmp ult i64 %99, %100
  %102 = getelementptr i8, ptr %2, i64 %.05682
  %103 = getelementptr inbounds nuw i8, ptr %.2, i64 48
  %104 = load ptr, ptr %103, align 8
  %105 = getelementptr i8, ptr %104, i64 %86
  br i1 %101, label %106, label %111

106:                                              ; preds = %97
  call void @llvm.memcpy.p0.p0.i64(ptr noundef align 1 %102, ptr noundef align 1 %105, i64 noundef %99, i1 noundef false) #14
  %107 = add i64 %99, %.05682
  %108 = load i64, ptr %7, align 8
  %109 = add i64 %108, %99
  store i64 %109, ptr %7, align 8
  %110 = icmp ult i64 %109, %9
  br i1 %110, label %.preheader, label %._crit_edge, !llvm.loop !25

111:                                              ; preds = %97
  call void @llvm.memcpy.p0.p0.i64(ptr noundef align 1 %102, ptr noundef align 1 %105, i64 noundef %100, i1 noundef false) #14
  br label %.loopexit

._crit_edge:                                      ; preds = %106, %48
  store i32 -21, ptr %4, align 4
  %112 = call noalias ptr @wmem_strdup(ptr noundef null, ptr noundef nonnull @.str.12)
  store ptr %112, ptr %5, align 8
  br label %.loopexit

.loopexit:                                        ; preds = %95, %89, %82, %74, %67, %65, %33, %19, %6, %._crit_edge, %111
  %.0 = phi i1 [ true, %111 ], [ false, %._crit_edge ], [ false, %6 ], [ false, %19 ], [ false, %33 ], [ false, %65 ], [ false, %67 ], [ false, %74 ], [ false, %82 ], [ false, %89 ], [ false, %95 ]
  call void @llvm.lifetime.end.p0(i64 4, ptr nonnull %8) #14
  ret i1 %.0
}